target datalayout = "e-m:e-p270:32:32-p271:32:32-p272:64:64-i64:64-i128:128-f80:128-n8:16:32:64-S128"
target triple = "x86_64-unknown-linux-gnu"

%struct.SCSISense = type { i8, i8, i8 }
%struct.SCSIDiskState = type { %struct.SCSIDevice, i32, i8, i8, i8, i16, i64, i64, i32, ptr, ptr, ptr, ptr, ptr, ptr, i8, i8, i16 }
%struct.SCSIDevice = type { %struct.DeviceState, ptr, ptr, i32, %struct.BlockConf, %struct.SCSISense, i8, [252 x i8], i32, %union.anon, i32, i32, i32, i32, i64, i64, i64, i32, i32, i32, i8, i8 }
%struct.DeviceState = type { %struct.Object, ptr, ptr, i8, i8, i64, ptr, i32, i8, ptr, %struct.NamedGPIOListHead, %struct.NamedClockListHead, %struct.BusStateHead, i32, i32, i32, %struct.ResettableState, ptr, %struct.MemReentrancyGuard }
%struct.Object = type { ptr, ptr, ptr, i32, ptr }
%struct.NamedGPIOListHead = type { ptr }
%struct.NamedClockListHead = type { ptr }
%struct.BusStateHead = type { ptr }
%struct.ResettableState = type { i32, i8, i8 }
%struct.MemReentrancyGuard = type { i8 }
%struct.BlockConf = type { ptr, i32, i32, i32, i32, i32, i32, i32, i32, i32, i32, i32, i32, i32, i32, i8, i32, i32, i32, i32 }
%union.anon = type { %struct.QTailQLink }
%struct.QTailQLink = type { ptr, ptr }
%struct.SCSIDiskReq = type { %struct.SCSIRequest, i64, i32, i32, i8, i8, %struct.iovec, %struct.QEMUIOVector, %struct.BlockAcctCookie }
%struct.SCSIRequest = type { ptr, ptr, ptr, i32, i32, i32, i16, i16, ptr, i64, %struct.SCSICommand, %struct.NotifierList, [252 x i8], i32, i8, i8, i8, i8, ptr, ptr, %union.anon.0 }
%struct.SCSICommand = type { [16 x i8], i32, i64, i64, i32 }
%struct.NotifierList = type { %struct.anon }
%struct.anon = type { ptr }
%union.anon.0 = type { %struct.QTailQLink }
%struct.iovec = type { ptr, i64 }
%struct.QEMUIOVector = type { ptr, i32, %union.anon.1 }
%union.anon.1 = type { %struct.anon.2 }
%struct.anon.2 = type { i32, %struct.iovec }
%struct.BlockAcctCookie = type { i64, i64, i32 }

; Function Attrs: nounwind sspstrong uwtable
define internal void @stw_he_p(ptr noundef %ptr, i16 noundef zeroext %v) #0 {
entry:
  %ptr.addr = alloca ptr, align 8
  %v.addr = alloca i16, align 2
  store ptr %ptr, ptr %ptr.addr, align 8
  store i16 %v, ptr %v.addr, align 2
  %0 = load ptr, ptr %ptr.addr, align 8
  call void @llvm.memcpy.p0.p0.i64(ptr align 1 %0, ptr align 2 %v.addr, i64 2, i1 false)
  ret void
}

; Function Attrs: nounwind sspstrong uwtable
define internal void @stw_be_p(ptr noundef %ptr, i16 noundef zeroext %v) #0 {
entry:
  %ptr.addr = alloca ptr, align 8
  %v.addr = alloca i16, align 2
  store ptr %ptr, ptr %ptr.addr, align 8
  store i16 %v, ptr %v.addr, align 2
  %0 = load ptr, ptr %ptr.addr, align 8
  %1 = load i16, ptr %v.addr, align 2
  %2 = call i16 @llvm.bswap.i16(i16 %1)
  call void @stw_he_p(ptr noundef %0, i16 noundef zeroext %2)
  ret void
}

; Function Attrs: nounwind sspstrong uwtable
define internal i32 @scsi_event_status_media(ptr noundef %s, ptr noundef %outbuf) #0 {
entry:
  %s.addr = alloca ptr, align 8
  %outbuf.addr = alloca ptr, align 8
  %event_code = alloca i8, align 1
  %media_status = alloca i8, align 1
  store ptr %s, ptr %s.addr, align 8
  store ptr %outbuf, ptr %outbuf.addr, align 8
  store i8 0, ptr %media_status, align 1
  %0 = load ptr, ptr %s.addr, align 8
  %tray_open = getelementptr inbounds %struct.SCSIDiskState, ptr %0, i32 0, i32 15
  %1 = load i8, ptr %tray_open, align 8
  %tobool = trunc i8 %1 to i1
  br i1 %tobool, label %if.then, label %if.else

if.then:                                          ; preds = %entry
  store i8 1, ptr %media_status, align 1
  br label %if.end2

if.else:                                          ; preds = %entry
  %2 = load ptr, ptr %s.addr, align 8
  %qdev = getelementptr inbounds %struct.SCSIDiskState, ptr %2, i32 0, i32 0
  %conf = getelementptr inbounds %struct.SCSIDevice, ptr %qdev, i32 0, i32 4
  %blk = getelementptr inbounds %struct.BlockConf, ptr %conf, i32 0, i32 0
  %3 = load ptr, ptr %blk, align 8
  %call = call zeroext i1 @blk_is_inserted(ptr noundef %3)
  br i1 %call, label %if.then1, label %if.end

if.then1:                                         ; preds = %if.else
  store i8 2, ptr %media_status, align 1
  br label %if.end

if.end:                                           ; preds = %if.then1, %if.else
  br label %if.end2

if.end2:                                          ; preds = %if.end, %if.then
  store i8 0, ptr %event_code, align 1
  %4 = load i8, ptr %media_status, align 1
  %conv = zext i8 %4 to i32
  %cmp = icmp ne i32 %conv, 1
  br i1 %cmp, label %if.then4, label %if.end14

if.then4:                                         ; preds = %if.end2
  %5 = load ptr, ptr %s.addr, align 8
  %media_event = getelementptr inbounds %struct.SCSIDiskState, ptr %5, i32 0, i32 3
  %6 = load i8, ptr %media_event, align 1
  %tobool5 = trunc i8 %6 to i1
  br i1 %tobool5, label %if.then6, label %if.else8

if.then6:                                         ; preds = %if.then4
  store i8 2, ptr %event_code, align 1
  %7 = load ptr, ptr %s.addr, align 8
  %media_event7 = getelementptr inbounds %struct.SCSIDiskState, ptr %7, i32 0, i32 3
  store i8 0, ptr %media_event7, align 1
  br label %if.end13

if.else8:                                         ; preds = %if.then4
  %8 = load ptr, ptr %s.addr, align 8
  %eject_request = getelementptr inbounds %struct.SCSIDiskState, ptr %8, i32 0, i32 4
  %9 = load i8, ptr %eject_request, align 2
  %tobool9 = trunc i8 %9 to i1
  br i1 %tobool9, label %if.then10, label %if.end12

if.then10:                                        ; preds = %if.else8
  store i8 1, ptr %event_code, align 1
  %10 = load ptr, ptr %s.addr, align 8
  %eject_request11 = getelementptr inbounds %struct.SCSIDiskState, ptr %10, i32 0, i32 4
  store i8 0, ptr %eject_request11, align 2
  br label %if.end12

if.end12:                                         ; preds = %if.then10, %if.else8
  br label %if.end13

if.end13:                                         ; preds = %if.end12, %if.then6
  br label %if.end14

if.end14:                                         ; preds = %if.end13, %if.end2
  %11 = load i8, ptr %event_code, align 1
  %12 = load ptr, ptr %outbuf.addr, align 8
  %arrayidx = getelementptr i8, ptr %12, i64 0
  store i8 %11, ptr %arrayidx, align 1
  %13 = load i8, ptr %media_status, align 1
  %14 = load ptr, ptr %outbuf.addr, align 8
  %arrayidx15 = getelementptr i8, ptr %14, i64 1
  store i8 %13, ptr %arrayidx15, align 1
  %15 = load ptr, ptr %outbuf.addr, align 8
  %arrayidx16 = getelementptr i8, ptr %15, i64 2
  store i8 0, ptr %arrayidx16, align 1
  %16 = load ptr, ptr %outbuf.addr, align 8
  %arrayidx17 = getelementptr i8, ptr %16, i64 3
  store i8 0, ptr %arrayidx17, align 1
  ret i32 4
}

; Function Attrs: nounwind sspstrong uwtable
define internal i32 @scsi_get_event_status_notification(ptr noundef %s, ptr noundef %r, ptr noundef %outbuf) #0 {
entry:
  %retval = alloca i32, align 4
  %s.addr = alloca ptr, align 8
  %r.addr = alloca ptr, align 8
  %outbuf.addr = alloca ptr, align 8
  %size = alloca i32, align 4
  %buf = alloca ptr, align 8
  %notification_class_request = alloca i8, align 1
  store ptr %s, ptr %s.addr, align 8
  store ptr %r, ptr %r.addr, align 8
  store ptr %outbuf, ptr %outbuf.addr, align 8
  %0 = load ptr, ptr %r.addr, align 8
  %req = getelementptr inbounds %struct.SCSIDiskReq, ptr %0, i32 0, i32 0
  %cmd = getelementptr inbounds %struct.SCSIRequest, ptr %req, i32 0, i32 10
  %buf1 = getelementptr inbounds %struct.SCSICommand, ptr %cmd, i32 0, i32 0
  %arraydecay = getelementptr inbounds [16 x i8], ptr %buf1, i64 0, i64 0
  store ptr %arraydecay, ptr %buf, align 8
  %1 = load ptr, ptr %buf, align 8
  %arrayidx = getelementptr i8, ptr %1, i64 4
  %2 = load i8, ptr %arrayidx, align 1
  store i8 %2, ptr %notification_class_request, align 1
  %3 = load ptr, ptr %s.addr, align 8
  %qdev = getelementptr inbounds %struct.SCSIDiskState, ptr %3, i32 0, i32 0
  %type = getelementptr inbounds %struct.SCSIDevice, ptr %qdev, i32 0, i32 13
  %4 = load i32, ptr %type, align 4
  %cmp = icmp ne i32 %4, 5
  br i1 %cmp, label %if.then, label %if.end

if.then:                                          ; preds = %entry
  store i32 -1, ptr %retval, align 4
  br label %return

if.end:                                           ; preds = %entry
  %5 = load ptr, ptr %buf, align 8
  %arrayidx2 = getelementptr i8, ptr %5, i64 1
  %6 = load i8, ptr %arrayidx2, align 1
  %conv = zext i8 %6 to i32
  %and = and i32 %conv, 1
  %cmp3 = icmp eq i32 %and, 0
  br i1 %cmp3, label %if.then5, label %if.end6

if.then5:                                         ; preds = %if.end
  store i32 -1, ptr %retval, align 4
  br label %return

if.end6:                                          ; preds = %if.end
  store i32 4, ptr %size, align 4
  %7 = load ptr, ptr %outbuf.addr, align 8
  %arrayidx7 = getelementptr i8, ptr %7, i64 1
  store i8 0, ptr %arrayidx7, align 1
  %8 = load ptr, ptr %outbuf.addr, align 8
  %arrayidx8 = getelementptr i8, ptr %8, i64 0
  store i8 0, ptr %arrayidx8, align 1
  %9 = load ptr, ptr %outbuf.addr, align 8
  %arrayidx9 = getelementptr i8, ptr %9, i64 3
  store i8 16, ptr %arrayidx9, align 1
  %10 = load i8, ptr %notification_class_request, align 1
  %conv10 = zext i8 %10 to i32
  %and11 = and i32 %conv10, 16
  %tobool = icmp ne i32 %and11, 0
  br i1 %tobool, label %if.then12, label %if.else

if.then12:                                        ; preds = %if.end6
  %11 = load ptr, ptr %outbuf.addr, align 8
  %arrayidx13 = getelementptr i8, ptr %11, i64 2
  store i8 4, ptr %arrayidx13, align 1
  %12 = load ptr, ptr %s.addr, align 8
  %13 = load ptr, ptr %outbuf.addr, align 8
  %14 = load i32, ptr %size, align 4
  %idxprom = sext i32 %14 to i64
  %arrayidx14 = getelementptr i8, ptr %13, i64 %idxprom
  %call = call i32 @scsi_event_status_media(ptr noundef %12, ptr noundef %arrayidx14)
  %15 = load i32, ptr %size, align 4
  %add = add i32 %15, %call
  store i32 %add, ptr %size, align 4
  br label %if.end16

if.else:                                          ; preds = %if.end6
  %16 = load ptr, ptr %outbuf.addr, align 8
  %arrayidx15 = getelementptr i8, ptr %16, i64 2
  store i8 -128, ptr %arrayidx15, align 1
  br label %if.end16

if.end16:                                         ; preds = %if.else, %if.then12
  %17 = load ptr, ptr %outbuf.addr, align 8
  %18 = load i32, ptr %size, align 4
  %sub = sub i32 %18, 4
  %conv17 = trunc i32 %sub to i16
  call void @stw_be_p(ptr noundef %17, i16 noundef zeroext %conv17)
  %19 = load i32, ptr %size, align 4
  store i32 %19, ptr %retval, align 4
  br label %return

return:                                           ; preds = %if.end16, %if.then5, %if.then
  %20 = load i32, ptr %retval, align 4
  ret i32 %20
}