; Function Attrs: nounwind sspstrong uwtable
define internal fastcc range(i32 -1, 9) i32 @scsi_get_event_status_notification(ptr noundef captures(none) %s, ptr noundef readonly captures(none) %r, ptr noundef writeonly captures(none) %outbuf) unnamed_addr #0 {
entry:
  %arrayidx = getelementptr i8, ptr %r, i64 60
  %0 = load i8, ptr %arrayidx, align 1
  %type = getelementptr inbounds nuw i8, ptr %s, i64 564
  %1 = load i32, ptr %type, align 4
  %cmp.not = icmp eq i32 %1, 5
  br i1 %cmp.not, label %if.end, label %return

if.end:                                           ; preds = %entry
  %arrayidx2 = getelementptr i8, ptr %r, i64 57
  %2 = load i8, ptr %arrayidx2, align 1
  %3 = and i8 %2, 1
  %cmp3 = icmp eq i8 %3, 0
  br i1 %cmp3, label %return, label %if.end6

if.end6:                                          ; preds = %if.end
  %arrayidx7 = getelementptr i8, ptr %outbuf, i64 1
  store i8 0, ptr %arrayidx7, align 1
  store i8 0, ptr %outbuf, align 1
  %arrayidx9 = getelementptr i8, ptr %outbuf, i64 3
  store i8 16, ptr %arrayidx9, align 1
  %4 = and i8 %0, 16
  %tobool.not = icmp eq i8 %4, 0
  %arrayidx15 = getelementptr i8, ptr %outbuf, i64 2
  br i1 %tobool.not, label %if.else, label %if.then12

if.then12:                                        ; preds = %if.end6
  store i8 4, ptr %arrayidx15, align 1
  %arrayidx14 = getelementptr i8, ptr %outbuf, i64 4
  %tray_open.i = getelementptr inbounds nuw i8, ptr %s, i64 696
  %5 = load i8, ptr %tray_open.i, align 8
  %tobool.i = trunc i8 %5 to i1
  br i1 %tobool.i, label %scsi_event_status_media.exit, label %if.then4.i

if.then4.i:                                       ; preds = %if.then12
  %conf.i = getelementptr inbounds nuw i8, ptr %s, i64 184
  %6 = load ptr, ptr %conf.i, align 8
  %call.i = tail call zeroext i1 @blk_is_inserted(ptr noundef %6) #18
  %spec.select.i = select i1 %call.i, i8 2, i8 0
  %media_event.i = getelementptr inbounds nuw i8, ptr %s, i64 613
  %7 = load i8, ptr %media_event.i, align 1
  %tobool5.i = trunc i8 %7 to i1
  br i1 %tobool5.i, label %if.then6.i, label %if.else8.i

if.then6.i:                                       ; preds = %if.then4.i
  store i8 0, ptr %media_event.i, align 1
  br label %scsi_event_status_media.exit

if.else8.i:                                       ; preds = %if.then4.i
  %eject_request.i = getelementptr inbounds nuw i8, ptr %s, i64 614
  %8 = load i8, ptr %eject_request.i, align 2
  %tobool9.i = trunc i8 %8 to i1
  br i1 %tobool9.i, label %if.then10.i, label %scsi_event_status_media.exit

if.then10.i:                                      ; preds = %if.else8.i
  store i8 0, ptr %eject_request.i, align 2
  br label %scsi_event_status_media.exit

scsi_event_status_media.exit:                     ; preds = %if.then12, %if.then6.i, %if.else8.i, %if.then10.i
  %media_status.011.i = phi i8 [ %spec.select.i, %if.then6.i ], [ %spec.select.i, %if.then10.i ], [ %spec.select.i, %if.else8.i ], [ 1, %if.then12 ]
  %event_code.0.i = phi i8 [ 2, %if.then6.i ], [ 1, %if.then10.i ], [ 0, %if.else8.i ], [ 0, %if.then12 ]
  store i8 %event_code.0.i, ptr %arrayidx14, align 1
  %arrayidx15.i = getelementptr i8, ptr %outbuf, i64 5
  store i8 %media_status.011.i, ptr %arrayidx15.i, align 1
  %arrayidx16.i = getelementptr i8, ptr %outbuf, i64 6
  store i8 0, ptr %arrayidx16.i, align 1
  %arrayidx17.i = getelementptr i8, ptr %outbuf, i64 7
  store i8 0, ptr %arrayidx17.i, align 1
  br label %if.end16

if.else:                                          ; preds = %if.end6
  store i8 -128, ptr %arrayidx15, align 1
  br label %if.end16

if.end16:                                         ; preds = %if.else, %scsi_event_status_media.exit
  %size.0 = phi i32 [ 8, %scsi_event_status_media.exit ], [ 4, %if.else ]
  %9 = trunc nuw nsw i32 %size.0 to i16
  %conv17 = add nsw i16 %9, -4
  %10 = tail call i16 @llvm.bswap.i16(i16 %conv17)
  store i16 %10, ptr %outbuf, align 1
  br label %return

return:                                           ; preds = %if.end, %entry, %if.end16
  %retval.0 = phi i32 [ %size.0, %if.end16 ], [ -1, %entry ], [ -1, %if.end ]
  ret i32 %retval.0
}